(dp1
S'output'
p2
S'missing "pass" in view'
p3
sS'layer'
p4
S'ParserContainer'
p5
sS'code'
p6
S'response.write(\'<!DOCTYPE html>\\r\\n<!--[if (gt IE 9)|!(IE)]><!--> <html class="no-js" lang="\', escape=False)\nresponse.write(T.accepted_language or \'en\')\nresponse.write(\'"> <!--<![endif]-->\\r\\n  <head>\\r\\n    <meta charset="utf-8">\\r\\n    <!-- www.phpied.com/conditional-comments-block-downloads/ -->\\r\\n    <!-- Always force latest IE rendering engine\\r\\n         (even in intranet) & Chrome Frame\\r\\n         Remove this if you use the .htaccess -->\\r\\n    <meta http-equiv="X-UA-Compatible" content="IE=edge\', escape=False)\nresponse.write(not request.is_local and \',chrome=1\' or \'\')\nresponse.write(\'">\\r\\n    <!--  Mobile Viewport Fix\\r\\n          j.mp/mobileviewport & davidbcalhoun.com/2010/viewport-metatag\\r\\n          device-width: Occupy full width of the screen in its current orientation\\r\\n          initial-scale = 1.0 retains dimensions instead of zooming out if page height > device height\\r\\n          user-scalable = yes allows the user to zoom in -->\\r\\n    <meta name="viewport" content="width=device-width, initial-scale=1.0">\\r\\n    <title>\', escape=False)\nresponse.write(response.title or request.application)\nresponse.write(\'</title>\\r\\n    <!-- http://dev.w3.org/html5/markup/meta.name.html -->\\r\\n    <meta name="application-name" content="\', escape=False)\nresponse.write(request.application)\nresponse.write(\'">\\r\\n    <!-- Speaking of Google, don\\\'t forget to set your site up:\\r\\n         http://google.com/webmasters -->\\r\\n    <meta name="google-site-verification" content="">\\r\\n    <!-- include stylesheets -->\\r\\n    <link rel="stylesheet" href="https://cdnjs.cloudflare.com/ajax/libs/font-awesome/4.7.0/css/font-awesome.min.css"/>\\r\\n    <link rel="stylesheet" href="\', escape=False)\nresponse.write(URL(\'static\',\'css/bootstrap.min.css\'))\nresponse.write(\'"/>\\r\\n    <link rel="stylesheet" href="\', escape=False)\nresponse.write(URL(\'static\',\'css/web2py-bootstrap4.css\'))\nresponse.write(\'"/>\\r\\n    \', escape=False)\nhome_page_assets = db(db.home_page_assets).select().first()\nif home_page_assets:\n    squish_logo = home_page_assets.logo\nelse:\n    squish_logo = \'\'\n    response.write(\'\\r\\n    <link rel="shortcut icon" href="\', escape=False)\n    response.write(squish_logo)\n    response.write(\'" type="image/x-icon">\\r\\n    <link rel="apple-touch-icon" href="\', escape=False)\n    response.write(squish_logo)\n    response.write(\'">\\r\\n    <link rel="stylesheet" href="\', escape=False)\n    response.write(URL(\'static\', \'font-awesome-4.6.3/css/font-awesome.min.css\'))\n    response.write(\'">\\r\\n    <!-- All JavaScript at the bottom, except for Modernizr which enables\\r\\n         HTML5 elements & feature detects -->\\r\\n    <script src="\', escape=False)\n    response.write(URL(\'static\',\'js/modernizr-2.8.3.min.js\'))\n    response.write(\'"></script>\\r\\n    <script src="\', escape=False)\n    response.write(URL(\'static\',\'js/vue.min.js\'))\n    response.write(\'"></script>\\r\\n    <!-- Favicons -->\\r\\n    \', escape=False)\n    response.write(\'<script type="text/javascript"><!--\\r\\n    // These variables are used by the web2py_ajax_init function in web2py_ajax.js (which is loaded below).\\r\\n    \', escape=False)\n    response.write(ASSIGNJS(\n    w2p_ajax_confirm_message = T(\'Are you sure you want to delete this object?\'),\n    w2p_ajax_disable_with_message = T(\'Working...\'),\n    w2p_ajax_date_format = T(\'%Y-%m-%d\'),\n    w2p_ajax_datetime_format = T(\'%Y-%m-%d %H:%M:%S\'),\n    ajax_error_500 = T.M(\'An error occured, please [[reload %s]] the page\') % URL(args=request.args, vars=request.get_vars)\n    ))\n    response.write(\'\\r\\n    //--></script>\\r\\n\', escape=False)\n    response.files.insert(0,URL(\'static\',\'js/jquery.js\'))\n    response.files.insert(1,URL(\'static\',\'css/calendar.css\'))\n    response.files.insert(2,URL(\'static\',\'js/calendar.js\'))\n    response.files.insert(3,URL(\'static\',\'js/web2py.js\'))\n    response.include_meta()\n    response.include_files()\n    response.write(\'\\r\\n\', escape=False)\n    response.write(\' <!-- this includes jquery.js, calendar.js/.css and web2py.js -->\\r\\n    \', escape=False)\n    response.write(\'\\r\\n  </head>\\r\\n  <body>\\r\\n    <div class="w2p_flash alert alert-dismissable">\', escape=False)\n    response.write(response.flash or \'\')\n    response.write(\'</div>\\r\\n\\r\\n    <!-- Masthead ===================================== -->\\r\\n    \', escape=False)\n    response.write(\'\\r\\n    \', escape=False)\n    response.write(\'\\r\\n    <!-- Main ========================================= -->\\r\\n    <!-- Begin page content -->\\r\\n    <div class="">\\r\\n      \', escape=False)\n    response.write(\'\\r\\n\\r\\n<link rel="stylesheet" href="\', escape=False)\n    response.write(URL(\'static\',\'css/app.css\'))\n    response.write(\'"/>\\r\\n\\r\\n<div id="app">\\r\\n    \', escape=False)\n    response.write(\'<link rel="stylesheet" href="\', escape=False)\n    response.write(URL(\'static\',\'css/nav.css\'))\n    response.write(\'"/>\\r\\n\\r\\n<nav class="navbar navbar-expand-lg navbar-dark">\\r\\n    <div class="navbar-brand" v-on:click="setRoute(\\\'home\\\')">SQUISH</div>\\r\\n    <button id="nav-collapse" class="navbar-toggler" type="button" data-toggle="collapse" data-target="#navbarTogglerDemo02"\\r\\n        aria-controls="navbarTogglerDemo02" aria-expanded="false" aria-label="Toggle navigation">\\r\\n        <span class="navbar-toggler-icon"></span>\\r\\n    </button>\\r\\n\\r\\n    <div class="collapse navbar-collapse" id="navbarTogglerDemo02">\\r\\n        <ul class="navbar-nav ml-auto mt-2 mt-lg-0">\\r\\n            <li class="nav-item">\\r\\n                <div class="nav-link" v-on:click="setRoute(\\\'play\\\')">Play</div>\\r\\n            </li>\\r\\n            <li class="nav-item">\\r\\n                <div class="nav-link" v-on:click="setRoute(\\\'meet_the_team\\\')">Meet the Team</div>\\r\\n            </li>\\r\\n        </ul>\\r\\n    </div>\\r\\n</nav>\\r\\n\\r\\n<div class="page-footer">\\r\\n    <p class="company-name">&copy; Sit On It Games 2019</p>\\r\\n</div>\', escape=False)\n    response.write(\'\\r\\n\\r\\n    \', escape=False)\n    response.write(\'<script>\\r\\n    var getLogoUrl = "\', escape=False)\n    response.write(URL(\'api\', \'get_logo\'))\n    response.write(\'";\\r\\n    var getTrailerUrl = "\', escape=False)\n    response.write(URL(\'api\', \'get_trailer_url\'))\n    response.write(\'";\\r\\n    var getScreenshotsUrl = "\', escape=False)\n    response.write(URL(\'api\', \'get_screenshots\'))\n    response.write(\'";\\r\\n</script>\\r\\n\\r\\n<link rel="stylesheet" href="\', escape=False)\n    response.write(URL(\'static\',\'css/home-title.css\'))\n    response.write(\'" />\\r\\n<link rel="stylesheet" href="\', escape=False)\n    response.write(URL(\'static\',\'css/home-trailer.css\'))\n    response.write(\'" />\\r\\n<link rel="stylesheet" href="\', escape=False)\n    response.write(URL(\'static\',\'css/home-screenshots.css\'))\n    response.write(\'" />\\r\\n\\r\\n<div v-if="route == \\\'home\\\'">\\r\\n    <div class="title-container">\\r\\n        <div class="title-content">\\r\\n            <h1 class="title-header">SQUISH</h1>\\r\\n            <img class="logo" src="\', escape=False)\n    response.write(logo)\n    response.write(\'" />\\r\\n            <h5 class="subtitle-header">A Grave Rave Gone Awry!</h5>\\r\\n        </div>\\r\\n    </div>\\r\\n\\r\\n    <div class="trailer-container">\\r\\n        <div class="trailer-content">\\r\\n            <h1 class="trailer-header">Gameplay Trailer</h1>\\r\\n            <iframe src="\', escape=False)\n    response.write(trailer_url)\n    response.write(\'" frameborder="0" allow="accelerometer; autoplay; encrypted-media; gyroscope; picture-in-picture"\\r\\n                allowfullscreen></iframe>\\r\\n        </div>\\r\\n    </div>\\r\\n\\r\\n    <div class="screenshots-container">\\r\\n        <div class="screenshots-content">\\r\\n            <h1 class="screenshots-header">Screenshots</h1>\\r\\n            <div id="carouselExampleIndicators" class="carousel slide" data-ride="carousel">\\r\\n                <ol class="carousel-indicators">\\r\\n                    \', escape=False)\n    for index, _ in enumerate(screenshots):\n        response.write(\'\\r\\n                        \', escape=False)\n        if index == 0:\n            response.write(\'\\r\\n                            <li data-target="#carouselExampleIndicators" data-slide-to="\', escape=False)\n            response.write(index)\n            response.write(\'" class="active"></li>\\r\\n                        \', escape=False)\n        else:\n            response.write(\'\\r\\n                            <li data-target="#carouselExampleIndicators" data-slide-to="\', escape=False)\n            response.write(index)\n            response.write(\'"></li>\\r\\n                        \', escape=False)\n            pass\n        response.write(\'\\r\\n                    \', escape=False)\n        pass\n    response.write(\'\\r\\n                </ol>\\r\\n                <div class="carousel-inner">\\r\\n                    \', escape=False)\n    for index, screenshot in enumerate(screenshots):\n        response.write(\'\\r\\n                        \', escape=False)\n        if index == 0:\n            response.write(\'\\r\\n                            <div class="carousel-item active">\\r\\n                                <img class="screenshot d-block w-100" src="\', escape=False)\n            response.write(screenshot)\n            response.write(\'">\\r\\n                            </div>\\r\\n                        \', escape=False)\n        else:\n            response.write(\'\\r\\n                            <div class="carousel-item">\\r\\n                                <img class="screenshot d-block w-100" src="\', escape=False)\n            response.write(screenshot)\n            response.write(\'">\\r\\n                            </div>\\r\\n                        \', escape=False)\n            pass\n        response.write(\'\\r\\n                    \', escape=False)\n        pass\n    response.write(\'\\r\\n                </div>\\r\\n                <a class="carousel-control-prev" href="#carouselExampleIndicators" role="button" data-slide="prev">\\r\\n                    <span class="carousel-control-prev-icon" aria-hidden="true"></span>\\r\\n                    <span class="sr-only">Previous</span>\\r\\n                </a>\\r\\n                <a class="carousel-control-next" href="#carouselExampleIndicators" role="button" data-slide="next">\\r\\n                    <span class="carousel-control-next-icon" aria-hidden="true"></span>\\r\\n                    <span class="sr-only">Next</span>\\r\\n                </a>\\r\\n            </div>\\r\\n        </div>\\r\\n    </div>\\r\\n</div>\', escape=False)\n    response.write(\'\\r\\n\\r\\n    \', escape=False)\n    response.write(\'<div v-if="route == \\\'play\\\'">\\r\\n    <h1>Play page coming soon</h1>\\r\\n</div>\', escape=False)\n    response.write(\'\\r\\n\\r\\n    \', escape=False)\n    response.write(\'<div v-if="route == \\\'meet_the_team\\\'">\\r\\n    <h1>Meet the Team page coming soon</h1>\\r\\n</div>\', escape=False)\n    response.write(\'\\r\\n</div>\\r\\n\\r\\n<script src="\', escape=False)\n    response.write(URL(\'static\',\'js/index.js\'))\n    response.write(\'"></script>\', escape=False)\n    response.write(\'\\r\\n      \', escape=False)\n    response.write(response.toolbar() if response.show_toolbar else \'\')\n    response.write(\'\\r\\n    </div>\\r\\n\\r\\n    <!-- The javascript =============================== -->\\r\\n    <script src="\', escape=False)\n    response.write(URL(\'static\',\'js/bootstrap.bundle.min.js\'))\n    response.write(\'"></script>\\r\\n    <script src="\', escape=False)\n    response.write(URL(\'static\',\'js/web2py-bootstrap4.js\'))\n    response.write(\'"></script>\\r\\n    \', escape=False)\n    response.write(\'\\r\\n    \', escape=False)\n    if response.google_analytics_id:\n        response.write(\'\\r\\n    <!-- Analytics ==================================== -->\\r\\n    <script src="\', escape=False)\n        response.write(URL(\'static\',\'js/analytics.min.js\'))\n        response.write(\'"></script>\\r\\n    <script type="text/javascript">\\r\\n      analytics.initialize({\\r\\n      \\\'Google Analytics\\\':{trackingId:\\\'\', escape=False)\n        response.write(response.google_analytics_id)\n        response.write("\'}\\r\\n      });\\r\\n    </script>\\r\\n    ", escape=False)\n        pass\n    response.write(\'\\r\\n  </body>\\r\\n</html>\\r\\n\', escape=False)'
p7
sS'snapshot'
p8
(dp9
S'exception'
p10
(dp11
S'__module__'
p12
S"'gluon.rocket'"
p13
sS'__getslice__'
p14
S"<method-wrapper '__getslice__' of SocketTimeout object>"
p15
sS'__str__'
p16
S"<method-wrapper '__str__' of SocketTimeout object>"
p17
sS'__reduce__'
p18
S'<built-in method __reduce__ of SocketTimeout object>'
p19
sS'__dict__'
p20
S'{}'
p21
sS'__sizeof__'
p22
S'<built-in method __sizeof__ of SocketTimeout object>'
p23
sS'__weakref__'
p24
S'None'
p25
sS'message'
p26
S"'Socket timed out before request.'"
p27
sS'__init__'
p28
S"<method-wrapper '__init__' of SocketTimeout object>"
p29
sS'__setattr__'
p30
S"<method-wrapper '__setattr__' of SocketTimeout object>"
p31
sS'__reduce_ex__'
p32
S'<built-in method __reduce_ex__ of SocketTimeout object>'
p33
sS'__new__'
p34
S'<built-in method __new__ of type object>'
p35
sS'__format__'
p36
S'<built-in method __format__ of SocketTimeout object>'
p37
sS'__class__'
p38
S"<class 'gluon.rocket.SocketTimeout'>"
p39
sS'__doc__'
p40
S"'Exception for when a socket times out between requests.'"
p41
sS'__getitem__'
p42
S"<method-wrapper '__getitem__' of SocketTimeout object>"
p43
sS'__setstate__'
p44
S'<built-in method __setstate__ of SocketTimeout object>'
p45
sS'__getattribute__'
p46
S"<method-wrapper '__getattribute__' of SocketTimeout object>"
p47
sS'args'
p48
S"('Socket timed out before request.',)"
p49
sS'__subclasshook__'
p50
S'<built-in method __subclasshook__ of type object>'
p51
sS'__unicode__'
p52
S'<built-in method __unicode__ of SocketTimeout object>'
p53
sS'__delattr__'
p54
S"<method-wrapper '__delattr__' of SocketTimeout object>"
p55
sS'__repr__'
p56
S"<method-wrapper '__repr__' of SocketTimeout object>"
p57
sS'__hash__'
p58
S"<method-wrapper '__hash__' of SocketTimeout object>"
p59
ssS'evalue'
p60
S'Socket timed out before request.'
p61
sS'frames'
p62
(lp63
(dp64
S'file'
p65
S'C:\\cygwin64\\home\\austi\\web2py\\gluon\\rocket.py'
p66
sS'dump'
p67
(dp68
S'self'
p69
S'<WSGIWorker(Thread-12, started daemon 13356)>'
p70
sS'conn'
p71
S'<gluon.rocket.Connection object>'
p72
sS'self.run_app'
p73
S'<bound method WSGIWorker.run_app of <WSGIWorker(Thread-12, started daemon 13356)>>'
p74
ssS'lnum'
p75
I1319
sS'lines'
p76
(dp77
I1314
S'            # Enter connection serve loop'
p78
sI1315
S'            while True:'
p79
sI1316
S'                if __debug__:'
p80
sI1317
S"                    self.err_log.debug('Serving a request')"
p81
sI1318
S'                try:'
p82
sI1319
S'                    self.run_app(conn)'
p83
sI1320
S'                except:'
p84
sI1321
S'                    exc = sys.exc_info()'
p85
sI1322
S'                    handled = self._handleError(*exc)'
p86
sI1323
S'                    if handled:'
p87
ssS'call'
p88
S'(self=<WSGIWorker(Thread-12, started daemon 13356)>)'
p89
sS'func'
p90
S'run'
p91
sa(dp92
g65
S'C:\\cygwin64\\home\\austi\\web2py\\gluon\\rocket.py'
p93
sg67
(dp94
S'self'
p95
S'<WSGIWorker(Thread-12, started daemon 13356)>'
p96
sS'self.environ'
p97
S"{'HTTP_ACCEPT': 'text/html,application/xhtml+xml,application/xml;q=0.9,image/webp,image/apng,*/*;q=0.8', 'HTTP_ACCEPT_ENCODING': 'gzip, deflate, br', 'HTTP_ACCEPT_LANGUAGE': 'en-US,en;q=0.9', 'HTTP_CACHE_CONTROL': 'no-cache', 'HTTP_CONNECTION': 'keep-alive', 'HTTP_COOKIE': 'session_id_admin=127.0.0.1-09de79e6-4dcd-43e0-a6...sh=127.0.0.1-e21e1ac2-c865-4441-b647-cbf82af6c0cc', 'HTTP_HOST': '127.0.0.1:8000', 'HTTP_PRAGMA': 'no-cache', 'HTTP_UPGRADE_INSECURE_REQUESTS': '1', 'HTTP_USER_AGENT': 'Mozilla/5.0 (Windows NT 10.0; Win64; x64) AppleW...ML, like Gecko) Chrome/71.0.3578.98 Safari/537.36', ...}"
p98
sS'sock_file'
p99
S'<socket._fileobject object>'
p100
sS'environ'
p101
S'undefined'
p102
sS'self.build_environ'
p103
S'<bound method WSGIWorker.build_environ of <WSGIWorker(Thread-12, started daemon 13356)>>'
p104
sS'conn'
p105
S'<gluon.rocket.Connection object>'
p106
ssg75
I1812
sg76
(dp107
I1807
S'        else:'
p108
sI1808
S'            sock_file = conn.makefile(BUF_SIZE)'
p109
sI1809
S''
sI1810
S'        try:'
p110
sI1811
S'            # Read the headers and build our WSGI environment'
p111
sI1812
S'            self.environ = environ = self.build_environ(sock_file, conn)'
p112
sI1813
S''
sI1814
S'            # Handle 100 Continue'
p113
sI1815
S"            if environ.get('HTTP_EXPECT', '') == '100-continue':"
p114
sI1816
S"                res = environ['SERVER_PROTOCOL'] + ' 100 Continue\\r\\n\\r\\n'"
p115
ssg88
S'(self=<WSGIWorker(Thread-12, started daemon 13356)>, conn=<gluon.rocket.Connection object>)'
p116
sg90
S'run_app'
p117
sa(dp118
g65
S'C:\\cygwin64\\home\\austi\\web2py\\gluon\\rocket.py'
p119
sg67
(dp120
S'sock_file'
p121
S'<socket._fileobject object>'
p122
sS'self.read_request_line'
p123
S'<bound method WSGIWorker.read_request_line of <WSGIWorker(Thread-12, started daemon 13356)>>'
p124
sS'self'
p125
S'<WSGIWorker(Thread-12, started daemon 13356)>'
p126
sS'request'
p127
g102
ssg75
I1632
sg76
(dp128
I1632
S'        request = self.read_request_line(sock_file)'
p129
sI1633
S''
sI1634
S'        # Copy the Base Environment'
p130
sI1635
S'        environ = self.base_environ.copy()'
p131
sI1636
S''
sI1627
S'                                      "wsgiorg.futures": executor.futures})'
p132
sI1628
S''
sI1629
S'    def build_environ(self, sock_file, conn):'
p133
sI1630
S'        """ Build the execution environment. """'
p134
sI1631
S'        # Grab the request line'
p135
ssg88
S'(self=<WSGIWorker(Thread-12, started daemon 13356)>, sock_file=<socket._fileobject object>, conn=<gluon.rocket.Connection object>)'
p136
sg90
S'build_environ'
p137
sa(dp138
g65
S'C:\\cygwin64\\home\\austi\\web2py\\gluon\\rocket.py'
p139
sg67
(dp140
S'global SocketTimeout'
p141
S"<class 'gluon.rocket.SocketTimeout'>"
p142
ssg75
I1383
sg76
(dp143
I1378
S''
sI1379
S'                d = sock_file.readline()'
p144
sI1380
S'                if PY3K:'
p145
sI1381
S"                    d = d.decode('ISO-8859-1')"
p146
sI1382
S'        except socket.timeout:'
p147
sI1383
S"            raise SocketTimeout('Socket timed out before request.')"
p148
sI1384
S'        except TypeError:'
p149
sI1385
S'            raise SocketClosed('
p150
sI1386
S"                'SSL bug caused closure of socket.  See '"
p151
sI1387
S'                \'"https://groups.google.com/d/topic/web2py/P_Gw0JxWzCs".\')'
p152
ssg88
S'(self=<WSGIWorker(Thread-12, started daemon 13356)>, sock_file=<socket._fileobject object>)'
p153
sg90
S'read_request_line'
p154
sasS'pyver'
p155
S'Python 2.7.15: C:\\Python27\\python.exe (prefix: C:\\Python27)'
p156
sS'etype'
p157
S"<class 'gluon.rocket.SocketTimeout'>"
p158
sS'date'
p159
S'Sun Feb  3 23:52:03 2019'
p160
sS'locals'
p161
(dp162
S'sock_file'
p163
S'<socket._fileobject object>'
p164
sS'self'
p165
S'<WSGIWorker(Thread-12, started daemon 13356)>'
p166
sssS'traceback'
p167
S'Traceback (most recent call last):\n  File "C:\\cygwin64\\home\\austi\\web2py\\gluon\\rocket.py", line 1319, in run\n    self.run_app(conn)\n  File "C:\\cygwin64\\home\\austi\\web2py\\gluon\\rocket.py", line 1812, in run_app\n    self.environ = environ = self.build_environ(sock_file, conn)\n  File "C:\\cygwin64\\home\\austi\\web2py\\gluon\\rocket.py", line 1632, in build_environ\n    request = self.read_request_line(sock_file)\n  File "C:\\cygwin64\\home\\austi\\web2py\\gluon\\rocket.py", line 1383, in read_request_line\n    raise SocketTimeout(\'Socket timed out before request.\')\nSocketTimeout: Socket timed out before request.\n'
p168
s.